; Function Attrs: cold nounwind optsize uwtable
define internal range(i32 -12, 1) i32 @decode_init(ptr noundef %0) #0 {
  %2 = getelementptr inbounds nuw i8, ptr %0, i64 32
  %3 = load ptr, ptr %2, align 8, !tbaa !4
  store ptr %0, ptr %3, align 8, !tbaa !27
  %4 = getelementptr inbounds nuw i8, ptr %0, i64 136
  store i32 11, ptr %4, align 8, !tbaa !32
  %5 = tail call ptr @av_frame_alloc() #8
  %6 = getelementptr inbounds nuw i8, ptr %3, i64 8
  store ptr %5, ptr %6, align 8, !tbaa !33
  %.not = icmp eq ptr %5, null
  br i1 %.not, label %8, label %7

7:                                                ; preds = %1
  tail call void @decode_flush(ptr noundef nonnull %0)
  br label %8

8:                                                ; preds = %1, %7
  %.0 = phi i32 [ 0, %7 ], [ -12, %1 ]
  ret i32 %.0
}